; Function Attrs: nounwind uwtable
define hidden range(i32 0, 4) i32 @Curl_share_unlock(ptr noundef %0, i32 noundef %1) local_unnamed_addr #0 {
  %3 = getelementptr inbounds nuw i8, ptr %0, i64 224
  %4 = load ptr, ptr %3, align 8, !tbaa !36
  %.not = icmp eq ptr %4, null
  br i1 %.not, label %16, label %5

5:                                                ; preds = %2
  %6 = getelementptr inbounds nuw i8, ptr %4, i64 4
  %7 = load i32, ptr %6, align 4, !tbaa !26
  %8 = shl nuw i32 1, %1
  %9 = and i32 %7, %8
  %.not11 = icmp eq i32 %9, 0
  br i1 %.not11, label %16, label %10

10:                                               ; preds = %5
  %11 = getelementptr inbounds nuw i8, ptr %4, i64 24
  %12 = load ptr, ptr %11, align 8, !tbaa !34
  %.not12 = icmp eq ptr %12, null
  br i1 %.not12, label %16, label %13

13:                                               ; preds = %10
  %14 = getelementptr inbounds nuw i8, ptr %4, i64 32
  %15 = load ptr, ptr %14, align 8, !tbaa !35
  tail call void %12(ptr noundef nonnull %0, i32 noundef %1, ptr noundef %15) #4
  br label %16

16:                                               ; preds = %5, %13, %10, %2
  %.0 = phi i32 [ 3, %2 ], [ 0, %10 ], [ 0, %13 ], [ 0, %5 ]
  ret i32 %.0
}